target datalayout = "e-m:e-p270:32:32-p271:32:32-p272:64:64-i64:64-i128:128-f80:128-n8:16:32:64-S128"
target triple = "x86_64-pc-linux-gnu"

@.str.2 = private unnamed_addr constant [23 x i32] [i32 76, i32 105, i32 110, i32 101, i32 97, i32 114, i32 105, i32 122, i32 97, i32 116, i32 105, i32 111, i32 110, i32 32, i32 98, i32 117, i32 105, i32 108, i32 116, i32 45, i32 105, i32 110, i32 0], align 4
@.str.3 = private unnamed_addr constant [23 x i8] c"Linearization built-in\00", align 1

; Function Attrs: nounwind uwtable
define hidden ptr @cmsCreateLinearizationDeviceLinkTHR(ptr noundef %0, i32 noundef %1, ptr noundef %2) #0 {
  %4 = alloca ptr, align 8
  %5 = alloca ptr, align 8
  %6 = alloca i32, align 4
  %7 = alloca ptr, align 8
  %8 = alloca ptr, align 8
  %9 = alloca ptr, align 8
  %10 = alloca i32, align 4
  store ptr %0, ptr %5, align 8
  store i32 %1, ptr %6, align 4
  store ptr %2, ptr %7, align 8
  %11 = load ptr, ptr %5, align 8
  %12 = call ptr @cmsCreateProfilePlaceholder(ptr noundef %11)
  store ptr %12, ptr %8, align 8
  %13 = load ptr, ptr %8, align 8
  %14 = icmp ne ptr %13, null
  br i1 %14, label %16, label %15

15:                                               ; preds = %3
  store ptr null, ptr %4, align 8
  br label %69

16:                                               ; preds = %3
  %17 = load ptr, ptr %8, align 8
  call void @cmsSetProfileVersion(ptr noundef %17, double noundef 4.400000e+00)
  %18 = load ptr, ptr %8, align 8
  call void @cmsSetDeviceClass(ptr noundef %18, i32 noundef 1818848875)
  %19 = load ptr, ptr %8, align 8
  %20 = load i32, ptr %6, align 4
  call void @cmsSetColorSpace(ptr noundef %19, i32 noundef %20)
  %21 = load ptr, ptr %8, align 8
  %22 = load i32, ptr %6, align 4
  call void @cmsSetPCS(ptr noundef %21, i32 noundef %22)
  %23 = load ptr, ptr %8, align 8
  call void @cmsSetHeaderRenderingIntent(ptr noundef %23, i32 noundef 0)
  %24 = load i32, ptr %6, align 4
  %25 = call i32 @cmsChannelsOfColorSpace(i32 noundef %24)
  store i32 %25, ptr %10, align 4
  %26 = load ptr, ptr %5, align 8
  %27 = load i32, ptr %10, align 4
  %28 = load i32, ptr %10, align 4
  %29 = call ptr @cmsPipelineAlloc(ptr noundef %26, i32 noundef %27, i32 noundef %28)
  store ptr %29, ptr %9, align 8
  %30 = load ptr, ptr %9, align 8
  %31 = icmp eq ptr %30, null
  br i1 %31, label %32, label %33

32:                                               ; preds = %16
  br label %61

33:                                               ; preds = %16
  %34 = load ptr, ptr %9, align 8
  %35 = load ptr, ptr %5, align 8
  %36 = load i32, ptr %10, align 4
  %37 = load ptr, ptr %7, align 8
  %38 = call ptr @cmsStageAllocToneCurves(ptr noundef %35, i32 noundef %36, ptr noundef %37)
  %39 = call i32 @cmsPipelineInsertStage(ptr noundef %34, i32 noundef 0, ptr noundef %38)
  %40 = icmp ne i32 %39, 0
  br i1 %40, label %42, label %41

41:                                               ; preds = %33
  br label %61

42:                                               ; preds = %33
  %43 = load ptr, ptr %8, align 8
  %44 = call i32 @SetTextTags(ptr noundef %43, ptr noundef @.str.2)
  %45 = icmp ne i32 %44, 0
  br i1 %45, label %47, label %46

46:                                               ; preds = %42
  br label %61

47:                                               ; preds = %42
  %48 = load ptr, ptr %8, align 8
  %49 = load ptr, ptr %9, align 8
  %50 = call i32 @cmsWriteTag(ptr noundef %48, i32 noundef 1093812784, ptr noundef %49)
  %51 = icmp ne i32 %50, 0
  br i1 %51, label %53, label %52

52:                                               ; preds = %47
  br label %61

53:                                               ; preds = %47
  %54 = load ptr, ptr %8, align 8
  %55 = call i32 @SetSeqDescTag(ptr noundef %54, ptr noundef @.str.3)
  %56 = icmp ne i32 %55, 0
  br i1 %56, label %58, label %57

57:                                               ; preds = %53
  br label %61

58:                                               ; preds = %53
  %59 = load ptr, ptr %9, align 8
  call void @cmsPipelineFree(ptr noundef %59)
  %60 = load ptr, ptr %8, align 8
  store ptr %60, ptr %4, align 8
  br label %69

61:                                               ; preds = %57, %52, %46, %41, %32
  %62 = load ptr, ptr %9, align 8
  call void @cmsPipelineFree(ptr noundef %62)
  %63 = load ptr, ptr %8, align 8
  %64 = icmp ne ptr %63, null
  br i1 %64, label %65, label %68

65:                                               ; preds = %61
  %66 = load ptr, ptr %8, align 8
  %67 = call i32 @cmsCloseProfile(ptr noundef %66)
  br label %68

68:                                               ; preds = %65, %61
  store ptr null, ptr %4, align 8
  br label %69

69:                                               ; preds = %68, %58, %15
  %70 = load ptr, ptr %4, align 8
  ret ptr %70
}