; Function Attrs: nounwind uwtable
define hidden ptr @cmsCreateLinearizationDeviceLinkTHR(ptr noundef %0, i32 noundef %1, ptr noundef %2) local_unnamed_addr #0 {
  %4 = tail call ptr @cmsCreateProfilePlaceholder(ptr noundef %0) #7
  %.not = icmp eq ptr %4, null
  br i1 %.not, label %21, label %5

5:                                                ; preds = %3
  tail call void @cmsSetProfileVersion(ptr noundef nonnull %4, double noundef 4.400000e+00) #7
  tail call void @cmsSetDeviceClass(ptr noundef nonnull %4, i32 noundef 1818848875) #7
  tail call void @cmsSetColorSpace(ptr noundef nonnull %4, i32 noundef %1) #7
  tail call void @cmsSetPCS(ptr noundef nonnull %4, i32 noundef %1) #7
  tail call void @cmsSetHeaderRenderingIntent(ptr noundef nonnull %4, i32 noundef 0) #7
  %6 = tail call i32 @cmsChannelsOfColorSpace(i32 noundef %1) #7
  %7 = tail call ptr @cmsPipelineAlloc(ptr noundef %0, i32 noundef %6, i32 noundef %6) #7
  %8 = icmp eq ptr %7, null
  br i1 %8, label %19, label %9

9:                                                ; preds = %5
  %10 = tail call ptr @cmsStageAllocToneCurves(ptr noundef %0, i32 noundef %6, ptr noundef %2) #7
  %11 = tail call i32 @cmsPipelineInsertStage(ptr noundef nonnull %7, i32 noundef 0, ptr noundef %10) #7
  %.not29 = icmp eq i32 %11, 0
  br i1 %.not29, label %19, label %12

12:                                               ; preds = %9
  %13 = tail call fastcc i32 @SetTextTags(ptr noundef nonnull %4, ptr noundef nonnull @.str.2)
  %.not30 = icmp eq i32 %13, 0
  br i1 %.not30, label %19, label %14

14:                                               ; preds = %12
  %15 = tail call i32 @cmsWriteTag(ptr noundef nonnull %4, i32 noundef 1093812784, ptr noundef nonnull %7) #7
  %.not31 = icmp eq i32 %15, 0
  br i1 %.not31, label %19, label %16

16:                                               ; preds = %14
  %17 = tail call fastcc i32 @SetSeqDescTag(ptr noundef nonnull %4, ptr noundef nonnull @.str.3)
  %.not32 = icmp eq i32 %17, 0
  br i1 %.not32, label %19, label %18

18:                                               ; preds = %16
  tail call void @cmsPipelineFree(ptr noundef nonnull %7) #7
  br label %21

19:                                               ; preds = %16, %14, %12, %9, %5
  tail call void @cmsPipelineFree(ptr noundef %7) #7
  %20 = tail call i32 @cmsCloseProfile(ptr noundef nonnull %4) #7
  br label %21

21:                                               ; preds = %3, %19, %18
  %.0 = phi ptr [ null, %19 ], [ %4, %18 ], [ null, %3 ]
  ret ptr %.0
}